target datalayout = "e-m:e-p270:32:32-p271:32:32-p272:64:64-i64:64-i128:128-f80:128-n8:16:32:64-S128"
target triple = "x86_64-pc-linux-gnu"

%class.BitMap = type { ptr, i64 }
%class.G1YoungCollector = type { ptr, i32, i8, [3 x i8], %class.G1EvacFailureRegions }
%class.G1EvacFailureRegions = type <{ %class.CHeapBitMap, %class.CHeapBitMap, %class.CHeapBitMap, ptr, i32, [4 x i8] }>
%class.CHeapBitMap = type <{ %class.GrowableBitMap, i8, [7 x i8] }>
%class.GrowableBitMap = type { %class.BitMap }

@_ZN8Universe14_collectedHeapE = external global ptr, align 8

; Function Attrs: mustprogress nounwind uwtable
define linkonce_odr hidden noundef ptr @_ZN8Universe4heapEv() #1 comdat align 2 {
  %1 = load ptr, ptr @_ZN8Universe14_collectedHeapE, align 8
  ret ptr %1
}

; Function Attrs: mustprogress nounwind uwtable
define linkonce_odr hidden noundef ptr @_ZN13CollectedHeap10named_heapI15G1CollectedHeapEEPT_NS_4NameE(i32 noundef %0) #1 comdat align 2 {
  %2 = alloca i32, align 4
  %3 = alloca ptr, align 8
  store i32 %0, ptr %2, align 4
  %4 = call noundef ptr @_ZN8Universe4heapEv()
  store ptr %4, ptr %3, align 8
  %5 = load ptr, ptr %3, align 8
  ret ptr %5
}

; Function Attrs: mustprogress nounwind uwtable
define linkonce_odr hidden noundef ptr @_ZN15G1CollectedHeap4heapEv() #1 comdat align 2 {
  %1 = call noundef ptr @_ZN13CollectedHeap10named_heapI15G1CollectedHeapEEPT_NS_4NameE(i32 noundef 3)
  ret ptr %1
}

; Function Attrs: mustprogress nounwind uwtable
define hidden void @_ZN16G1YoungCollectorC2EN7GCCause5CauseE(ptr noundef nonnull align 8 dereferenceable(104) %0, i32 noundef %1) unnamed_addr #1 align 2 {
  %3 = alloca ptr, align 8
  %4 = alloca i32, align 4
  store ptr %0, ptr %3, align 8
  store i32 %1, ptr %4, align 4
  %5 = load ptr, ptr %3, align 8
  %6 = getelementptr inbounds %class.G1YoungCollector, ptr %5, i32 0, i32 0
  %7 = call noundef ptr @_ZN15G1CollectedHeap4heapEv()
  store ptr %7, ptr %6, align 8
  %8 = getelementptr inbounds %class.G1YoungCollector, ptr %5, i32 0, i32 1
  %9 = load i32, ptr %4, align 4
  store i32 %9, ptr %8, align 8
  %10 = getelementptr inbounds %class.G1YoungCollector, ptr %5, i32 0, i32 2
  store i8 0, ptr %10, align 4
  %11 = getelementptr inbounds %class.G1YoungCollector, ptr %5, i32 0, i32 4
  call void @_ZN20G1EvacFailureRegionsC1Ev(ptr noundef nonnull align 8 dereferenceable(84) %11)
  ret void
}