; Function Attrs: mustprogress nounwind uwtable
define hidden void @_ZN16G1YoungCollectorC2EN7GCCause5CauseE(ptr noundef nonnull align 8 dereferenceable(104) %0, i32 noundef %1) unnamed_addr #0 align 2 {
  %3 = load ptr, ptr @_ZN8Universe14_collectedHeapE, align 8
  store ptr %3, ptr %0, align 8
  %4 = getelementptr inbounds i8, ptr %0, i64 8
  store i32 %1, ptr %4, align 8
  %5 = getelementptr inbounds i8, ptr %0, i64 12
  store i8 0, ptr %5, align 4
  %6 = getelementptr inbounds i8, ptr %0, i64 16
  tail call void @_ZN20G1EvacFailureRegionsC1Ev(ptr noundef nonnull align 8 dereferenceable(84) %6) #18
  ret void
}